target datalayout = "e-m:e-p270:32:32-p271:32:32-p272:64:64-i64:64-i128:128-f80:128-n8:16:32:64-S128"
target triple = "x86_64-pc-linux-gnu"

; Function Attrs: nounwind uwtable
define internal void @xtea_crypt(ptr noundef %0, ptr noundef %1, ptr noundef %2, i32 noundef %3, ptr noundef %4, i32 noundef %5, ptr noundef %6) #0 {
  %8 = alloca ptr, align 8
  %9 = alloca ptr, align 8
  %10 = alloca ptr, align 8
  %11 = alloca i32, align 4
  %12 = alloca ptr, align 8
  %13 = alloca i32, align 4
  %14 = alloca ptr, align 8
  %15 = alloca i32, align 4
  store ptr %0, ptr %8, align 8, !tbaa !4
  store ptr %1, ptr %9, align 8, !tbaa !9
  store ptr %2, ptr %10, align 8, !tbaa !9
  store i32 %3, ptr %11, align 4, !tbaa !11
  store ptr %4, ptr %12, align 8, !tbaa !9
  store i32 %5, ptr %13, align 4, !tbaa !11
  store ptr %6, ptr %14, align 8, !tbaa !17
  call void @llvm.lifetime.start.p0(i64 4, ptr %15) #5
  %16 = load i32, ptr %13, align 4, !tbaa !11
  %17 = icmp ne i32 %16, 0
  br i1 %17, label %18, label %35

18:                                               ; preds = %7
  br label %19

19:                                               ; preds = %23, %18
  %20 = load i32, ptr %11, align 4, !tbaa !11
  %21 = add nsw i32 %20, -1
  store i32 %21, ptr %11, align 4, !tbaa !11
  %22 = icmp ne i32 %20, 0
  br i1 %22, label %23, label %34

23:                                               ; preds = %19
  %24 = load ptr, ptr %14, align 8, !tbaa !17
  %25 = load ptr, ptr %8, align 8, !tbaa !4
  %26 = load ptr, ptr %9, align 8, !tbaa !9
  %27 = load ptr, ptr %10, align 8, !tbaa !9
  %28 = load i32, ptr %13, align 4, !tbaa !11
  %29 = load ptr, ptr %12, align 8, !tbaa !9
  call void %24(ptr noundef %25, ptr noundef %26, ptr noundef %27, i32 noundef %28, ptr noundef %29)
  %30 = load ptr, ptr %10, align 8, !tbaa !9
  %31 = getelementptr inbounds i8, ptr %30, i64 8
  store ptr %31, ptr %10, align 8, !tbaa !9
  %32 = load ptr, ptr %9, align 8, !tbaa !9
  %33 = getelementptr inbounds i8, ptr %32, i64 8
  store ptr %33, ptr %9, align 8, !tbaa !9
  br label %19, !llvm.loop !18

34:                                               ; preds = %19
  br label %89

35:                                               ; preds = %7
  br label %36

36:                                               ; preds = %83, %35
  %37 = load i32, ptr %11, align 4, !tbaa !11
  %38 = add nsw i32 %37, -1
  store i32 %38, ptr %11, align 4, !tbaa !11
  %39 = icmp ne i32 %37, 0
  br i1 %39, label %40, label %88

40:                                               ; preds = %36
  %41 = load ptr, ptr %12, align 8, !tbaa !9
  %42 = icmp ne ptr %41, null
  br i1 %42, label %43, label %77

43:                                               ; preds = %40
  store i32 0, ptr %15, align 4, !tbaa !11
  br label %44

44:                                               ; preds = %66, %43
  %45 = load i32, ptr %15, align 4, !tbaa !11
  %46 = icmp slt i32 %45, 8
  br i1 %46, label %47, label %69

47:                                               ; preds = %44
  %48 = load ptr, ptr %10, align 8, !tbaa !9
  %49 = load i32, ptr %15, align 4, !tbaa !11
  %50 = sext i32 %49 to i64
  %51 = getelementptr inbounds i8, ptr %48, i64 %50
  %52 = load i8, ptr %51, align 1, !tbaa !13
  %53 = zext i8 %52 to i32
  %54 = load ptr, ptr %12, align 8, !tbaa !9
  %55 = load i32, ptr %15, align 4, !tbaa !11
  %56 = sext i32 %55 to i64
  %57 = getelementptr inbounds i8, ptr %54, i64 %56
  %58 = load i8, ptr %57, align 1, !tbaa !13
  %59 = zext i8 %58 to i32
  %60 = xor i32 %53, %59
  %61 = trunc i32 %60 to i8
  %62 = load ptr, ptr %9, align 8, !tbaa !9
  %63 = load i32, ptr %15, align 4, !tbaa !11
  %64 = sext i32 %63 to i64
  %65 = getelementptr inbounds i8, ptr %62, i64 %64
  store i8 %61, ptr %65, align 1, !tbaa !13
  br label %66

66:                                               ; preds = %47
  %67 = load i32, ptr %15, align 4, !tbaa !11
  %68 = add nsw i32 %67, 1
  store i32 %68, ptr %15, align 4, !tbaa !11
  br label %44, !llvm.loop !19

69:                                               ; preds = %44
  %70 = load ptr, ptr %14, align 8, !tbaa !17
  %71 = load ptr, ptr %8, align 8, !tbaa !4
  %72 = load ptr, ptr %9, align 8, !tbaa !9
  %73 = load ptr, ptr %9, align 8, !tbaa !9
  %74 = load i32, ptr %13, align 4, !tbaa !11
  call void %70(ptr noundef %71, ptr noundef %72, ptr noundef %73, i32 noundef %74, ptr noundef null)
  %75 = load ptr, ptr %12, align 8, !tbaa !9
  %76 = load ptr, ptr %9, align 8, !tbaa !9
  call void @llvm.memcpy.p0.p0.i64(ptr align 1 %75, ptr align 1 %76, i64 8, i1 false)
  br label %83

77:                                               ; preds = %40
  %78 = load ptr, ptr %14, align 8, !tbaa !17
  %79 = load ptr, ptr %8, align 8, !tbaa !4
  %80 = load ptr, ptr %9, align 8, !tbaa !9
  %81 = load ptr, ptr %10, align 8, !tbaa !9
  %82 = load i32, ptr %13, align 4, !tbaa !11
  call void %78(ptr noundef %79, ptr noundef %80, ptr noundef %81, i32 noundef %82, ptr noundef null)
  br label %83

83:                                               ; preds = %77, %69
  %84 = load ptr, ptr %10, align 8, !tbaa !9
  %85 = getelementptr inbounds i8, ptr %84, i64 8
  store ptr %85, ptr %10, align 8, !tbaa !9
  %86 = load ptr, ptr %9, align 8, !tbaa !9
  %87 = getelementptr inbounds i8, ptr %86, i64 8
  store ptr %87, ptr %9, align 8, !tbaa !9
  br label %36, !llvm.loop !20

88:                                               ; preds = %36
  br label %89

89:                                               ; preds = %88, %34
  call void @llvm.lifetime.end.p0(i64 4, ptr %15) #5
  ret void
}

; Function Attrs: nounwind uwtable
define void @av_xtea_crypt(ptr noundef %0, ptr noundef %1, ptr noundef %2, i32 noundef %3, ptr noundef %4, i32 noundef %5) #0 {
  %7 = alloca ptr, align 8
  %8 = alloca ptr, align 8
  %9 = alloca ptr, align 8
  %10 = alloca i32, align 4
  %11 = alloca ptr, align 8
  %12 = alloca i32, align 4
  store ptr %0, ptr %7, align 8, !tbaa !4
  store ptr %1, ptr %8, align 8, !tbaa !9
  store ptr %2, ptr %9, align 8, !tbaa !9
  store i32 %3, ptr %10, align 4, !tbaa !11
  store ptr %4, ptr %11, align 8, !tbaa !9
  store i32 %5, ptr %12, align 4, !tbaa !11
  %13 = load ptr, ptr %7, align 8, !tbaa !4
  %14 = load ptr, ptr %8, align 8, !tbaa !9
  %15 = load ptr, ptr %9, align 8, !tbaa !9
  %16 = load i32, ptr %10, align 4, !tbaa !11
  %17 = load ptr, ptr %11, align 8, !tbaa !9
  %18 = load i32, ptr %12, align 4, !tbaa !11
  call void @xtea_crypt(ptr noundef %13, ptr noundef %14, ptr noundef %15, i32 noundef %16, ptr noundef %17, i32 noundef %18, ptr noundef @xtea_crypt_ecb)
  ret void
}