; Function Attrs: nofree norecurse nosync nounwind memory(readwrite, inaccessiblemem: none) uwtable
define void @av_xtea_crypt(ptr noundef readonly captures(none) %0, ptr noundef captures(none) %1, ptr noundef readonly captures(none) %2, i32 noundef %3, ptr noundef captures(address_is_null) %4, i32 noundef %5) local_unnamed_addr #3 {
  %.not.i = icmp eq i32 %5, 0
  %.not3950.i = icmp eq i32 %3, 0
  br i1 %.not.i, label %.preheader42.i, label %.preheader43.i

.preheader43.i:                                   ; preds = %6
  br i1 %.not3950.i, label %xtea_crypt.exit, label %.lr.ph.i

.preheader42.i:                                   ; preds = %6
  br i1 %.not3950.i, label %xtea_crypt.exit, label %.lr.ph53.i

.lr.ph53.i:                                       ; preds = %.preheader42.i
  %7 = add nsw i32 %3, -1
  %.not40.i = icmp eq ptr %4, null
  br i1 %.not40.i, label %.lr.ph53.split.us.i, label %.preheader.i

.lr.ph53.split.us.i:                              ; preds = %.lr.ph53.i, %.lr.ph53.split.us.i
  %8 = phi i32 [ %11, %.lr.ph53.split.us.i ], [ %7, %.lr.ph53.i ]
  %.152.us.i = phi ptr [ %10, %.lr.ph53.split.us.i ], [ %1, %.lr.ph53.i ]
  %.13551.us.i = phi ptr [ %9, %.lr.ph53.split.us.i ], [ %2, %.lr.ph53.i ]
  tail call fastcc void @xtea_crypt_ecb(ptr noundef %0, ptr noundef %.152.us.i, ptr noundef %.13551.us.i, i32 noundef 0, ptr noundef null) #6, !callees !12
  %9 = getelementptr inbounds nuw i8, ptr %.13551.us.i, i64 8
  %10 = getelementptr inbounds nuw i8, ptr %.152.us.i, i64 8
  %11 = add nsw i32 %8, -1
  %.not39.us.i = icmp eq i32 %8, 0
  br i1 %.not39.us.i, label %xtea_crypt.exit, label %.lr.ph53.split.us.i, !llvm.loop !13

.lr.ph.i:                                         ; preds = %.preheader43.i, %.lr.ph.i
  %.03348.i = phi ptr [ %14, %.lr.ph.i ], [ %1, %.preheader43.i ]
  %.03447.i = phi ptr [ %13, %.lr.ph.i ], [ %2, %.preheader43.i ]
  %.03646.i = phi i32 [ %12, %.lr.ph.i ], [ %3, %.preheader43.i ]
  %12 = add nsw i32 %.03646.i, -1
  tail call fastcc void @xtea_crypt_ecb(ptr noundef %0, ptr noundef %.03348.i, ptr noundef %.03447.i, i32 noundef %5, ptr noundef %4) #6, !callees !12
  %13 = getelementptr inbounds nuw i8, ptr %.03447.i, i64 8
  %14 = getelementptr inbounds nuw i8, ptr %.03348.i, i64 8
  %.not41.i = icmp eq i32 %12, 0
  br i1 %.not41.i, label %xtea_crypt.exit, label %.lr.ph.i, !llvm.loop !14

.preheader.i:                                     ; preds = %.lr.ph53.i, %23
  %15 = phi i32 [ %27, %23 ], [ %7, %.lr.ph53.i ]
  %.152.i = phi ptr [ %26, %23 ], [ %1, %.lr.ph53.i ]
  %.13551.i = phi ptr [ %25, %23 ], [ %2, %.lr.ph53.i ]
  br label %16

16:                                               ; preds = %16, %.preheader.i
  %indvars.iv.i = phi i64 [ 0, %.preheader.i ], [ %indvars.iv.next.i, %16 ]
  %17 = getelementptr inbounds nuw i8, ptr %.13551.i, i64 %indvars.iv.i
  %18 = load i8, ptr %17, align 1, !tbaa !4
  %19 = getelementptr inbounds nuw i8, ptr %4, i64 %indvars.iv.i
  %20 = load i8, ptr %19, align 1, !tbaa !4
  %21 = xor i8 %20, %18
  %22 = getelementptr inbounds nuw i8, ptr %.152.i, i64 %indvars.iv.i
  store i8 %21, ptr %22, align 1, !tbaa !4
  %indvars.iv.next.i = add nuw nsw i64 %indvars.iv.i, 1
  %exitcond.not.i = icmp eq i64 %indvars.iv.next.i, 8
  br i1 %exitcond.not.i, label %23, label %16, !llvm.loop !15

23:                                               ; preds = %16
  tail call fastcc void @xtea_crypt_ecb(ptr noundef %0, ptr noundef nonnull %.152.i, ptr noundef nonnull %.152.i, i32 noundef 0, ptr noundef null) #6, !callees !12
  %24 = load i64, ptr %.152.i, align 1
  store i64 %24, ptr %4, align 1
  %25 = getelementptr inbounds nuw i8, ptr %.13551.i, i64 8
  %26 = getelementptr inbounds nuw i8, ptr %.152.i, i64 8
  %27 = add nsw i32 %15, -1
  %.not39.i = icmp eq i32 %15, 0
  br i1 %.not39.i, label %xtea_crypt.exit, label %.preheader.i, !llvm.loop !13

xtea_crypt.exit:                                  ; preds = %.lr.ph.i, %23, %.lr.ph53.split.us.i, %.preheader43.i, %.preheader42.i
  ret void
}